target datalayout = "e-m:e-p270:32:32-p271:32:32-p272:64:64-i64:64-i128:128-f80:128-n8:16:32:64-S128"
target triple = "x86_64-pc-linux-gnu"

%struct.opcode_metadata = type { i8, i8, i16 }
%struct._object = type { %union.anon, ptr }
%union.anon = type { i64 }
%struct._Py_SourceLocation = type { i32, i32, i32, i32 }
%struct._PyJumpTargetLabel = type { i32 }
%struct._PyCfgBuilder = type { ptr, ptr, ptr, %struct._PyJumpTargetLabel }
%struct._PyCfgBasicblock = type { ptr, %struct._PyJumpTargetLabel, ptr, ptr, ptr, i32, i32, i64, i32, i32, i8 }
%struct._PyCfgInstruction = type { i32, i32, %struct._Py_SourceLocation, ptr, ptr }
%struct.instruction_sequence = type { %struct._object, ptr, i32, i32, i32, ptr, i32, ptr }
%struct._PyInstruction = type { i32, i32, %struct._Py_SourceLocation, %struct._PyExceptHandlerInfo, i32, i32 }
%struct._PyExceptHandlerInfo = type { i32, i32, i32 }

@_PyOpcode_opcode_metadata = external constant [266 x %struct.opcode_metadata], align 16

; Function Attrs: nounwind uwtable
define hidden i32 @_PyCfg_ToInstructionSequence(ptr noundef %0, ptr noundef %1) #0 {
  %3 = alloca i32, align 4
  %4 = alloca ptr, align 8
  %5 = alloca ptr, align 8
  %6 = alloca i32, align 4
  %7 = alloca ptr, align 8
  %8 = alloca %struct._PyJumpTargetLabel, align 4
  %9 = alloca ptr, align 8
  %10 = alloca i32, align 4
  %11 = alloca i32, align 4
  %12 = alloca ptr, align 8
  %13 = alloca ptr, align 8
  store ptr %0, ptr %4, align 8, !tbaa !4
  store ptr %1, ptr %5, align 8, !tbaa !87
  call void @llvm.lifetime.start.p0(i64 4, ptr %6) #7
  store i32 0, ptr %6, align 4, !tbaa !19
  call void @llvm.lifetime.start.p0(i64 8, ptr %7) #7
  %14 = load ptr, ptr %4, align 8, !tbaa !4
  %15 = getelementptr inbounds nuw %struct._PyCfgBuilder, ptr %14, i32 0, i32 0
  %16 = load ptr, ptr %15, align 8, !tbaa !15
  store ptr %16, ptr %7, align 8, !tbaa !14
  br label %17

17:                                               ; preds = %28, %2
  %18 = load ptr, ptr %7, align 8, !tbaa !14
  %19 = icmp ne ptr %18, null
  br i1 %19, label %21, label %20

20:                                               ; preds = %17
  call void @llvm.lifetime.end.p0(i64 8, ptr %7) #7
  br label %32

21:                                               ; preds = %17
  %22 = load ptr, ptr %7, align 8, !tbaa !14
  %23 = getelementptr inbounds nuw %struct._PyCfgBasicblock, ptr %22, i32 0, i32 1
  %24 = getelementptr inbounds nuw %struct._PyJumpTargetLabel, ptr %8, i32 0, i32 0
  %25 = load i32, ptr %6, align 4, !tbaa !19
  store i32 %25, ptr %24, align 4, !tbaa !17
  call void @llvm.memcpy.p0.p0.i64(ptr align 8 %23, ptr align 4 %8, i64 4, i1 false), !tbaa.struct !18
  %26 = load i32, ptr %6, align 4, !tbaa !19
  %27 = add i32 %26, 1
  store i32 %27, ptr %6, align 4, !tbaa !19
  br label %28

28:                                               ; preds = %21
  %29 = load ptr, ptr %7, align 8, !tbaa !14
  %30 = getelementptr inbounds nuw %struct._PyCfgBasicblock, ptr %29, i32 0, i32 4
  %31 = load ptr, ptr %30, align 8, !tbaa !42
  store ptr %31, ptr %7, align 8, !tbaa !14
  br label %17, !llvm.loop !102

32:                                               ; preds = %20
  call void @llvm.lifetime.start.p0(i64 8, ptr %9) #7
  %33 = load ptr, ptr %4, align 8, !tbaa !4
  %34 = getelementptr inbounds nuw %struct._PyCfgBuilder, ptr %33, i32 0, i32 0
  %35 = load ptr, ptr %34, align 8, !tbaa !15
  store ptr %35, ptr %9, align 8, !tbaa !14
  br label %36

36:                                               ; preds = %168, %32
  %37 = load ptr, ptr %9, align 8, !tbaa !14
  %38 = icmp ne ptr %37, null
  br i1 %38, label %40, label %39

39:                                               ; preds = %36
  store i32 5, ptr %10, align 4
  br label %172

40:                                               ; preds = %36
  %41 = load ptr, ptr %5, align 8, !tbaa !87
  %42 = load ptr, ptr %9, align 8, !tbaa !14
  %43 = getelementptr inbounds nuw %struct._PyCfgBasicblock, ptr %42, i32 0, i32 1
  %44 = getelementptr inbounds nuw %struct._PyJumpTargetLabel, ptr %43, i32 0, i32 0
  %45 = load i32, ptr %44, align 8, !tbaa !41
  %46 = call i32 @_PyInstructionSequence_UseLabel(ptr noundef %41, i32 noundef %45)
  %47 = icmp eq i32 %46, -1
  br i1 %47, label %48, label %49

48:                                               ; preds = %40
  store i32 -1, ptr %3, align 4
  store i32 1, ptr %10, align 4
  br label %172

49:                                               ; preds = %40
  call void @llvm.lifetime.start.p0(i64 4, ptr %11) #7
  store i32 0, ptr %11, align 4, !tbaa !19
  br label %50

50:                                               ; preds = %162, %49
  %51 = load i32, ptr %11, align 4, !tbaa !19
  %52 = load ptr, ptr %9, align 8, !tbaa !14
  %53 = getelementptr inbounds nuw %struct._PyCfgBasicblock, ptr %52, i32 0, i32 5
  %54 = load i32, ptr %53, align 8, !tbaa !44
  %55 = icmp slt i32 %51, %54
  br i1 %55, label %57, label %56

56:                                               ; preds = %50
  store i32 8, ptr %10, align 4
  br label %165

57:                                               ; preds = %50
  call void @llvm.lifetime.start.p0(i64 8, ptr %12) #7
  %58 = load ptr, ptr %9, align 8, !tbaa !14
  %59 = getelementptr inbounds nuw %struct._PyCfgBasicblock, ptr %58, i32 0, i32 3
  %60 = load ptr, ptr %59, align 8, !tbaa !20
  %61 = load i32, ptr %11, align 4, !tbaa !19
  %62 = sext i32 %61 to i64
  %63 = getelementptr %struct._PyCfgInstruction, ptr %60, i64 %62
  store ptr %63, ptr %12, align 8, !tbaa !29
  %64 = load ptr, ptr %12, align 8, !tbaa !29
  %65 = getelementptr inbounds nuw %struct._PyCfgInstruction, ptr %64, i32 0, i32 0
  %66 = load i32, ptr %65, align 8, !tbaa !30
  %67 = sext i32 %66 to i64
  %68 = getelementptr [266 x %struct.opcode_metadata], ptr @_PyOpcode_opcode_metadata, i64 0, i64 %67
  %69 = getelementptr inbounds nuw %struct.opcode_metadata, ptr %68, i32 0, i32 2
  %70 = load i16, ptr %69, align 2, !tbaa !45
  %71 = zext i16 %70 to i32
  %72 = and i32 %71, 8
  %73 = icmp ne i32 %72, 0
  br i1 %73, label %89, label %74

74:                                               ; preds = %57
  %75 = load ptr, ptr %12, align 8, !tbaa !29
  %76 = getelementptr inbounds nuw %struct._PyCfgInstruction, ptr %75, i32 0, i32 0
  %77 = load i32, ptr %76, align 8, !tbaa !30
  %78 = icmp eq i32 %77, 263
  br i1 %78, label %89, label %79

79:                                               ; preds = %74
  %80 = load ptr, ptr %12, align 8, !tbaa !29
  %81 = getelementptr inbounds nuw %struct._PyCfgInstruction, ptr %80, i32 0, i32 0
  %82 = load i32, ptr %81, align 8, !tbaa !30
  %83 = icmp eq i32 %82, 264
  br i1 %83, label %89, label %84

84:                                               ; preds = %79
  %85 = load ptr, ptr %12, align 8, !tbaa !29
  %86 = getelementptr inbounds nuw %struct._PyCfgInstruction, ptr %85, i32 0, i32 0
  %87 = load i32, ptr %86, align 8, !tbaa !30
  %88 = icmp eq i32 %87, 262
  br i1 %88, label %89, label %98

89:                                               ; preds = %84, %79, %74, %57
  %90 = load ptr, ptr %12, align 8, !tbaa !29
  %91 = getelementptr inbounds nuw %struct._PyCfgInstruction, ptr %90, i32 0, i32 3
  %92 = load ptr, ptr %91, align 8, !tbaa !34
  %93 = getelementptr inbounds nuw %struct._PyCfgBasicblock, ptr %92, i32 0, i32 1
  %94 = getelementptr inbounds nuw %struct._PyJumpTargetLabel, ptr %93, i32 0, i32 0
  %95 = load i32, ptr %94, align 8, !tbaa !41
  %96 = load ptr, ptr %12, align 8, !tbaa !29
  %97 = getelementptr inbounds nuw %struct._PyCfgInstruction, ptr %96, i32 0, i32 1
  store i32 %95, ptr %97, align 4, !tbaa !33
  br label %98

98:                                               ; preds = %89, %84
  %99 = load ptr, ptr %5, align 8, !tbaa !87
  %100 = load ptr, ptr %12, align 8, !tbaa !29
  %101 = getelementptr inbounds nuw %struct._PyCfgInstruction, ptr %100, i32 0, i32 0
  %102 = load i32, ptr %101, align 8, !tbaa !30
  %103 = load ptr, ptr %12, align 8, !tbaa !29
  %104 = getelementptr inbounds nuw %struct._PyCfgInstruction, ptr %103, i32 0, i32 1
  %105 = load i32, ptr %104, align 4, !tbaa !33
  %106 = load ptr, ptr %12, align 8, !tbaa !29
  %107 = getelementptr inbounds nuw %struct._PyCfgInstruction, ptr %106, i32 0, i32 2
  %108 = getelementptr inbounds nuw { i64, i64 }, ptr %107, i32 0, i32 0
  %109 = load i64, ptr %108, align 8
  %110 = getelementptr inbounds nuw { i64, i64 }, ptr %107, i32 0, i32 1
  %111 = load i64, ptr %110, align 8
  %112 = call i32 @_PyInstructionSequence_Addop(ptr noundef %99, i32 noundef %102, i32 noundef %105, i64 %109, i64 %111)
  %113 = icmp eq i32 %112, -1
  br i1 %113, label %114, label %115

114:                                              ; preds = %98
  store i32 -1, ptr %3, align 4
  store i32 1, ptr %10, align 4
  br label %159

115:                                              ; preds = %98
  call void @llvm.lifetime.start.p0(i64 8, ptr %13) #7
  %116 = load ptr, ptr %5, align 8, !tbaa !87
  %117 = getelementptr inbounds nuw %struct.instruction_sequence, ptr %116, i32 0, i32 1
  %118 = load ptr, ptr %117, align 8, !tbaa !92
  %119 = load ptr, ptr %5, align 8, !tbaa !87
  %120 = getelementptr inbounds nuw %struct.instruction_sequence, ptr %119, i32 0, i32 3
  %121 = load i32, ptr %120, align 4, !tbaa !89
  %122 = sub i32 %121, 1
  %123 = sext i32 %122 to i64
  %124 = getelementptr %struct._PyInstruction, ptr %118, i64 %123
  %125 = getelementptr inbounds nuw %struct._PyInstruction, ptr %124, i32 0, i32 3
  store ptr %125, ptr %13, align 8, !tbaa !97
  %126 = load ptr, ptr %12, align 8, !tbaa !29
  %127 = getelementptr inbounds nuw %struct._PyCfgInstruction, ptr %126, i32 0, i32 4
  %128 = load ptr, ptr %127, align 8, !tbaa !56
  %129 = icmp ne ptr %128, null
  br i1 %129, label %130, label %155

130:                                              ; preds = %115
  %131 = load ptr, ptr %12, align 8, !tbaa !29
  %132 = getelementptr inbounds nuw %struct._PyCfgInstruction, ptr %131, i32 0, i32 4
  %133 = load ptr, ptr %132, align 8, !tbaa !56
  %134 = getelementptr inbounds nuw %struct._PyCfgBasicblock, ptr %133, i32 0, i32 1
  %135 = getelementptr inbounds nuw %struct._PyJumpTargetLabel, ptr %134, i32 0, i32 0
  %136 = load i32, ptr %135, align 8, !tbaa !41
  %137 = load ptr, ptr %13, align 8, !tbaa !97
  %138 = getelementptr inbounds nuw %struct._PyExceptHandlerInfo, ptr %137, i32 0, i32 0
  store i32 %136, ptr %138, align 4, !tbaa !103
  %139 = load ptr, ptr %12, align 8, !tbaa !29
  %140 = getelementptr inbounds nuw %struct._PyCfgInstruction, ptr %139, i32 0, i32 4
  %141 = load ptr, ptr %140, align 8, !tbaa !56
  %142 = getelementptr inbounds nuw %struct._PyCfgBasicblock, ptr %141, i32 0, i32 9
  %143 = load i32, ptr %142, align 4, !tbaa !104
  %144 = load ptr, ptr %13, align 8, !tbaa !97
  %145 = getelementptr inbounds nuw %struct._PyExceptHandlerInfo, ptr %144, i32 0, i32 1
  store i32 %143, ptr %145, align 4, !tbaa !105
  %146 = load ptr, ptr %12, align 8, !tbaa !29
  %147 = getelementptr inbounds nuw %struct._PyCfgInstruction, ptr %146, i32 0, i32 4
  %148 = load ptr, ptr %147, align 8, !tbaa !56
  %149 = getelementptr inbounds nuw %struct._PyCfgBasicblock, ptr %148, i32 0, i32 10
  %150 = load i8, ptr %149, align 8
  %151 = and i8 %150, 1
  %152 = zext i8 %151 to i32
  %153 = load ptr, ptr %13, align 8, !tbaa !97
  %154 = getelementptr inbounds nuw %struct._PyExceptHandlerInfo, ptr %153, i32 0, i32 2
  store i32 %152, ptr %154, align 4, !tbaa !106
  br label %158

155:                                              ; preds = %115
  %156 = load ptr, ptr %13, align 8, !tbaa !97
  %157 = getelementptr inbounds nuw %struct._PyExceptHandlerInfo, ptr %156, i32 0, i32 0
  store i32 -1, ptr %157, align 4, !tbaa !103
  br label %158

158:                                              ; preds = %155, %130
  call void @llvm.lifetime.end.p0(i64 8, ptr %13) #7
  store i32 0, ptr %10, align 4
  br label %159

159:                                              ; preds = %158, %114
  call void @llvm.lifetime.end.p0(i64 8, ptr %12) #7
  %160 = load i32, ptr %10, align 4
  switch i32 %160, label %165 [
    i32 0, label %161
  ]

161:                                              ; preds = %159
  br label %162

162:                                              ; preds = %161
  %163 = load i32, ptr %11, align 4, !tbaa !19
  %164 = add i32 %163, 1
  store i32 %164, ptr %11, align 4, !tbaa !19
  br label %50, !llvm.loop !107

165:                                              ; preds = %159, %56
  call void @llvm.lifetime.end.p0(i64 4, ptr %11) #7
  %166 = load i32, ptr %10, align 4
  switch i32 %166, label %172 [
    i32 8, label %167
  ]

167:                                              ; preds = %165
  br label %168

168:                                              ; preds = %167
  %169 = load ptr, ptr %9, align 8, !tbaa !14
  %170 = getelementptr inbounds nuw %struct._PyCfgBasicblock, ptr %169, i32 0, i32 4
  %171 = load ptr, ptr %170, align 8, !tbaa !42
  store ptr %171, ptr %9, align 8, !tbaa !14
  br label %36, !llvm.loop !108

172:                                              ; preds = %165, %48, %39
  call void @llvm.lifetime.end.p0(i64 8, ptr %9) #7
  %173 = load i32, ptr %10, align 4
  switch i32 %173, label %180 [
    i32 5, label %174
  ]

174:                                              ; preds = %172
  %175 = load ptr, ptr %5, align 8, !tbaa !87
  %176 = call i32 @_PyInstructionSequence_ApplyLabelMap(ptr noundef %175)
  %177 = icmp slt i32 %176, 0
  br i1 %177, label %178, label %179

178:                                              ; preds = %174
  store i32 -1, ptr %3, align 4
  store i32 1, ptr %10, align 4
  br label %180

179:                                              ; preds = %174
  store i32 0, ptr %3, align 4
  store i32 1, ptr %10, align 4
  br label %180

180:                                              ; preds = %179, %178, %172
  call void @llvm.lifetime.end.p0(i64 4, ptr %6) #7
  %181 = load i32, ptr %3, align 4
  ret i32 %181
}