; Function Attrs: nounwind uwtable
define hidden range(i32 -1, 1) i32 @_PyCfg_ToInstructionSequence(ptr noundef readonly captures(none) %0, ptr noundef %1) local_unnamed_addr #0 {
  %.04864 = load ptr, ptr %0, align 8, !tbaa !23
  %.not65 = icmp eq ptr %.04864, null
  br i1 %.not65, label %.critedge60, label %.lr.ph

.lr.ph74:                                         ; preds = %.lr.ph
  %3 = getelementptr inbounds nuw i8, ptr %1, i64 16
  %4 = getelementptr inbounds nuw i8, ptr %1, i64 28
  br label %8

.lr.ph:                                           ; preds = %2, %.lr.ph
  %.04867 = phi ptr [ %.048, %.lr.ph ], [ %.04864, %2 ]
  %.04266 = phi i32 [ %6, %.lr.ph ], [ 0, %2 ]
  %5 = getelementptr inbounds nuw i8, ptr %.04867, i64 8
  store i32 %.04266, ptr %5, align 8, !tbaa !17
  %6 = add i32 %.04266, 1
  %7 = getelementptr inbounds nuw i8, ptr %.04867, i64 32
  %.048 = load ptr, ptr %7, align 8, !tbaa !23
  %.not = icmp eq ptr %.048, null
  br i1 %.not, label %.lr.ph74, label %.lr.ph, !llvm.loop !135

8:                                                ; preds = %.lr.ph74, %.critedge58
  %.04773 = phi ptr [ %.04864, %.lr.ph74 ], [ %.047, %.critedge58 ]
  %9 = getelementptr inbounds nuw i8, ptr %.04773, i64 8
  %10 = load i32, ptr %9, align 8, !tbaa !33
  %11 = tail call i32 @_PyInstructionSequence_UseLabel(ptr noundef %1, i32 noundef %10) #8
  %12 = icmp eq i32 %11, -1
  br i1 %12, label %.critedge, label %.preheader

.preheader:                                       ; preds = %8
  %13 = getelementptr inbounds nuw i8, ptr %.04773, i64 40
  %14 = load i32, ptr %13, align 8, !tbaa !25
  %.not5568 = icmp sgt i32 %14, 0
  br i1 %.not5568, label %.lr.ph70, label %.critedge58

.lr.ph70:                                         ; preds = %.preheader
  %15 = getelementptr inbounds nuw i8, ptr %.04773, i64 24
  br label %16

16:                                               ; preds = %.lr.ph70, %57
  %indvars.iv = phi i64 [ 0, %.lr.ph70 ], [ %indvars.iv.next, %57 ]
  %17 = load ptr, ptr %15, align 8, !tbaa !20
  %18 = getelementptr %struct._PyCfgInstruction, ptr %17, i64 %indvars.iv
  %19 = load i32, ptr %18, align 8, !tbaa !26
  %20 = sext i32 %19 to i64
  %21 = getelementptr [266 x %struct.opcode_metadata], ptr @_PyOpcode_opcode_metadata, i64 0, i64 %20, i32 2
  %22 = load i16, ptr %21, align 2, !tbaa !29
  %.fr61 = freeze i16 %22
  %23 = and i16 %.fr61, 8
  %.not52 = icmp ne i16 %23, 0
  %.off = add i32 %19, -262
  %switch = icmp ult i32 %.off, 3
  %or.cond = or i1 %switch, %.not52
  br i1 %or.cond, label %24, label %._crit_edge

._crit_edge:                                      ; preds = %16
  %.phi.trans.insert = getelementptr inbounds nuw i8, ptr %18, i64 4
  %.pre = load i32, ptr %.phi.trans.insert, align 4, !tbaa !35
  br label %30

24:                                               ; preds = %16
  %25 = getelementptr inbounds nuw i8, ptr %18, i64 24
  %26 = load ptr, ptr %25, align 8, !tbaa !36
  %27 = getelementptr inbounds nuw i8, ptr %26, i64 8
  %28 = load i32, ptr %27, align 8, !tbaa !33
  %29 = getelementptr inbounds nuw i8, ptr %18, i64 4
  store i32 %28, ptr %29, align 4, !tbaa !35
  br label %30

30:                                               ; preds = %._crit_edge, %24
  %31 = phi i32 [ %.pre, %._crit_edge ], [ %28, %24 ]
  %32 = getelementptr inbounds nuw i8, ptr %18, i64 8
  %33 = load i64, ptr %32, align 8
  %34 = getelementptr inbounds nuw i8, ptr %18, i64 16
  %35 = load i64, ptr %34, align 8
  %36 = tail call i32 @_PyInstructionSequence_Addop(ptr noundef %1, i32 noundef %19, i32 noundef %31, i64 %33, i64 %35) #8
  %.not54 = icmp eq i32 %36, -1
  br i1 %.not54, label %.critedge, label %37

37:                                               ; preds = %30
  %38 = load ptr, ptr %3, align 8, !tbaa !126
  %39 = load i32, ptr %4, align 4, !tbaa !123
  %40 = add i32 %39, -1
  %41 = sext i32 %40 to i64
  %42 = getelementptr %struct._PyInstruction, ptr %38, i64 %41, i32 3
  %43 = getelementptr inbounds nuw i8, ptr %18, i64 32
  %44 = load ptr, ptr %43, align 8, !tbaa !116
  %.not53 = icmp eq ptr %44, null
  br i1 %.not53, label %56, label %45

45:                                               ; preds = %37
  %46 = getelementptr inbounds nuw i8, ptr %44, i64 8
  %47 = load i32, ptr %46, align 8, !tbaa !33
  store i32 %47, ptr %42, align 4, !tbaa !136
  %48 = getelementptr inbounds nuw i8, ptr %44, i64 60
  %49 = load i32, ptr %48, align 4, !tbaa !137
  %50 = getelementptr inbounds nuw i8, ptr %42, i64 4
  store i32 %49, ptr %50, align 4, !tbaa !138
  %51 = getelementptr inbounds nuw i8, ptr %44, i64 64
  %52 = load i8, ptr %51, align 8
  %53 = and i8 %52, 1
  %54 = zext nneg i8 %53 to i32
  %55 = getelementptr inbounds nuw i8, ptr %42, i64 8
  store i32 %54, ptr %55, align 4, !tbaa !139
  br label %57

56:                                               ; preds = %37
  store i32 -1, ptr %42, align 4, !tbaa !136
  br label %57

57:                                               ; preds = %56, %45
  %indvars.iv.next = add nuw nsw i64 %indvars.iv, 1
  %58 = load i32, ptr %13, align 8, !tbaa !25
  %59 = sext i32 %58 to i64
  %.not55 = icmp slt i64 %indvars.iv.next, %59
  br i1 %.not55, label %16, label %.critedge58, !llvm.loop !140

.critedge58:                                      ; preds = %57, %.preheader
  %60 = getelementptr inbounds nuw i8, ptr %.04773, i64 32
  %.047 = load ptr, ptr %60, align 8, !tbaa !23
  %.not51 = icmp eq ptr %.047, null
  br i1 %.not51, label %.critedge60, label %8, !llvm.loop !141

.critedge60:                                      ; preds = %.critedge58, %2
  %61 = tail call i32 @_PyInstructionSequence_ApplyLabelMap(ptr noundef %1) #8
  %.lobit = ashr i32 %61, 31
  br label %.critedge

.critedge:                                        ; preds = %8, %30, %.critedge60
  %.5 = phi i32 [ %.lobit, %.critedge60 ], [ -1, %30 ], [ -1, %8 ]
  ret i32 %.5
}